; Function Attrs: mustprogress uwtable
define hidden void @_ZN2cv3ccm10Operations3runENS_3MatE(ptr dead_on_unwind noalias writable sret(%"class.cv::Mat") align 8 %0, ptr nocapture noundef nonnull readonly align 8 dereferenceable(32) %1, ptr noundef %2) local_unnamed_addr #0 align 2 personality ptr @__gxx_personality_v0 {
  %4 = alloca %"class.cv::Mat", align 8
  %5 = alloca %"class.cv::ccm::Operation", align 8
  %6 = alloca %"class.cv::Mat", align 8
  %7 = alloca %"class.cv::Mat", align 8
  %8 = alloca %"class.cv::Mat", align 8
  store ptr getelementptr inbounds inrange(-16, 16) (i8, ptr @_ZTVN2cv3ccm9OperationE, i64 16), ptr %5, align 8
  %9 = getelementptr inbounds i8, ptr %5, i64 8
  store i8 1, ptr %9, align 8
  %10 = getelementptr inbounds i8, ptr %5, i64 16
  call void @_ZN2cv3MatC1Ev(ptr noundef nonnull align 8 dereferenceable(96) %10) #13
  %11 = getelementptr inbounds i8, ptr %5, i64 112
  call void @llvm.memset.p0.i64(ptr noundef nonnull align 8 dereferenceable(32) %11, i8 0, i64 32, i1 false)
  %12 = getelementptr inbounds i8, ptr %1, i64 8
  %13 = load ptr, ptr %12, align 8
  %14 = getelementptr inbounds i8, ptr %1, i64 16
  %15 = load ptr, ptr %14, align 8
  %.not12 = icmp eq ptr %13, %15
  br i1 %.not12, label %._crit_edge, label %.lr.ph

.lr.ph:                                           ; preds = %3, %35
  %.sroa.09.013 = phi ptr [ %36, %35 ], [ %13, %3 ]
  %16 = getelementptr inbounds i8, ptr %.sroa.09.013, i64 8
  %17 = load i8, ptr %16, align 8
  %18 = trunc i8 %17 to i1
  br i1 %18, label %19, label %20

19:                                               ; preds = %.lr.ph
  invoke void @_ZN2cv3ccm9Operation3addERKS1_(ptr noundef nonnull align 8 dereferenceable(144) %5, ptr noundef nonnull align 8 dereferenceable(144) %.sroa.09.013)
          to label %35 unwind label %.loopexit

.loopexit:                                        ; preds = %19, %20, %27
  %lpad.loopexit = landingpad { ptr, i32 }
          cleanup
  br label %.body

.loopexit.split-lp:                               ; preds = %._crit_edge
  %lpad.loopexit.split-lp = landingpad { ptr, i32 }
          cleanup
  br label %.body

20:                                               ; preds = %.lr.ph
  invoke void @_ZN2cv3ccm9OperationclERNS_3MatE(ptr dead_on_unwind nonnull writable sret(%"class.cv::Mat") align 8 %6, ptr noundef nonnull align 8 dereferenceable(144) %5, ptr noundef nonnull align 8 dereferenceable(96) %2)
          to label %21 unwind label %.loopexit

21:                                               ; preds = %20
  %22 = invoke noundef nonnull align 8 dereferenceable(96) ptr @_ZN2cv3MataSEOS0_(ptr noundef nonnull align 8 dereferenceable(96) %2, ptr noundef nonnull align 8 dereferenceable(96) %6)
          to label %23 unwind label %31

23:                                               ; preds = %21
  call void @_ZN2cv3MatD1Ev(ptr noundef nonnull align 8 dereferenceable(96) %6) #13
  call void @llvm.lifetime.start.p0(i64 96, ptr nonnull %4)
  call void @_ZN2cv3MatC1Ev(ptr noundef nonnull align 8 dereferenceable(96) %4) #13
  %24 = invoke noundef nonnull align 8 dereferenceable(96) ptr @_ZN2cv3MataSEOS0_(ptr noundef nonnull align 8 dereferenceable(96) %10, ptr noundef nonnull align 8 dereferenceable(96) %4)
          to label %27 unwind label %25

25:                                               ; preds = %23
  %26 = landingpad { ptr, i32 }
          cleanup
  call void @_ZN2cv3MatD1Ev(ptr noundef nonnull align 8 dereferenceable(96) %4) #13
  br label %.body

27:                                               ; preds = %23
  call void @_ZN2cv3MatD1Ev(ptr noundef nonnull align 8 dereferenceable(96) %4) #13
  call void @llvm.lifetime.end.p0(i64 96, ptr nonnull %4)
  invoke void @_ZN2cv3ccm9OperationclERNS_3MatE(ptr dead_on_unwind nonnull writable sret(%"class.cv::Mat") align 8 %7, ptr noundef nonnull align 8 dereferenceable(144) %.sroa.09.013, ptr noundef nonnull align 8 dereferenceable(96) %2)
          to label %28 unwind label %.loopexit

28:                                               ; preds = %27
  %29 = invoke noundef nonnull align 8 dereferenceable(96) ptr @_ZN2cv3MataSEOS0_(ptr noundef nonnull align 8 dereferenceable(96) %2, ptr noundef nonnull align 8 dereferenceable(96) %7)
          to label %30 unwind label %33

30:                                               ; preds = %28
  call void @_ZN2cv3MatD1Ev(ptr noundef nonnull align 8 dereferenceable(96) %7) #13
  br label %35

31:                                               ; preds = %21
  %32 = landingpad { ptr, i32 }
          cleanup
  call void @_ZN2cv3MatD1Ev(ptr noundef nonnull align 8 dereferenceable(96) %6) #13
  br label %.body

33:                                               ; preds = %28
  %34 = landingpad { ptr, i32 }
          cleanup
  call void @_ZN2cv3MatD1Ev(ptr noundef nonnull align 8 dereferenceable(96) %7) #13
  br label %.body

35:                                               ; preds = %30, %19
  %36 = getelementptr inbounds i8, ptr %.sroa.09.013, i64 144
  %.not = icmp eq ptr %36, %15
  br i1 %.not, label %._crit_edge, label %.lr.ph

._crit_edge:                                      ; preds = %35, %3
  invoke void @_ZN2cv3ccm9OperationclERNS_3MatE(ptr dead_on_unwind nonnull writable sret(%"class.cv::Mat") align 8 %8, ptr noundef nonnull align 8 dereferenceable(144) %5, ptr noundef nonnull align 8 dereferenceable(96) %2)
          to label %37 unwind label %.loopexit.split-lp

37:                                               ; preds = %._crit_edge
  %38 = invoke noundef nonnull align 8 dereferenceable(96) ptr @_ZN2cv3MataSEOS0_(ptr noundef nonnull align 8 dereferenceable(96) %2, ptr noundef nonnull align 8 dereferenceable(96) %8)
          to label %39 unwind label %47

39:                                               ; preds = %37
  call void @_ZN2cv3MatD1Ev(ptr noundef nonnull align 8 dereferenceable(96) %8) #13
  call void @_ZN2cv3MatC1EOS0_(ptr noundef nonnull align 8 dereferenceable(96) %0, ptr noundef nonnull align 8 dereferenceable(96) %2) #13
  store ptr getelementptr inbounds inrange(-16, 16) (i8, ptr @_ZTVN2cv3ccm9OperationE, i64 16), ptr %5, align 8
  %40 = getelementptr inbounds i8, ptr %5, i64 128
  %41 = load ptr, ptr %40, align 8
  %.not.i.i.i = icmp eq ptr %41, null
  br i1 %.not.i.i.i, label %_ZN2cv3ccm9OperationD2Ev.exit, label %42

42:                                               ; preds = %39
  %43 = invoke noundef zeroext i1 %41(ptr noundef nonnull align 8 dereferenceable(16) %11, ptr noundef nonnull align 8 dereferenceable(16) %11, i32 noundef 3)
          to label %_ZN2cv3ccm9OperationD2Ev.exit unwind label %44

44:                                               ; preds = %42
  %45 = landingpad { ptr, i32 }
          catch ptr null
  %46 = extractvalue { ptr, i32 } %45, 0
  call void @__clang_call_terminate(ptr %46) #14
  unreachable

_ZN2cv3ccm9OperationD2Ev.exit:                    ; preds = %39, %42
  call void @_ZN2cv3MatD1Ev(ptr noundef nonnull align 8 dereferenceable(96) %10) #13
  ret void

47:                                               ; preds = %37
  %48 = landingpad { ptr, i32 }
          cleanup
  call void @_ZN2cv3MatD1Ev(ptr noundef nonnull align 8 dereferenceable(96) %8) #13
  br label %.body

.body:                                            ; preds = %.loopexit, %.loopexit.split-lp, %25, %47, %33, %31
  %.pn = phi { ptr, i32 } [ %34, %33 ], [ %32, %31 ], [ %48, %47 ], [ %26, %25 ], [ %lpad.loopexit, %.loopexit ], [ %lpad.loopexit.split-lp, %.loopexit.split-lp ]
  call void @_ZN2cv3ccm9OperationD2Ev(ptr noundef nonnull align 8 dereferenceable(144) %5) #13
  resume { ptr, i32 } %.pn
}